	.file	"main.c"
	.text
	.def	printf;	.scl	3;	.type	32;	.endef
	.seh_proc	printf
printf:
	pushq	%rbp
	.seh_pushreg	%rbp
	pushq	%rbx
	.seh_pushreg	%rbx
	subq	$56, %rsp
	.seh_stackalloc	56
	leaq	48(%rsp), %rbp
	.seh_setframe	%rbp, 48
	.seh_endprologue
	movq	%rcx, 32(%rbp)
	movq	%rdx, 40(%rbp)
	movq	%r8, 48(%rbp)
	movq	%r9, 56(%rbp)
	leaq	40(%rbp), %rax
	movq	%rax, -16(%rbp)
	movq	-16(%rbp), %rbx
	movl	$1, %ecx
	movq	__imp___acrt_iob_func(%rip), %rax
	call	*%rax
	movq	%rax, %rcx
	movq	32(%rbp), %rax
	movq	%rbx, %r8
	movq	%rax, %rdx
	call	__mingw_vfprintf
	movl	%eax, -4(%rbp)
	movl	-4(%rbp), %eax
	addq	$56, %rsp
	popq	%rbx
	popq	%rbp
	ret
	.seh_endproc
	.globl	a
	.data
	.align 4
a:
	.long	20
	.globl	string
	.section .rdata,"dr"
.LC0:
	.ascii "Hello world hehe\0"
	.data
	.align 8
string:
	.quad	.LC0
	.text
	.globl	display
	.def	display;	.scl	2;	.type	32;	.endef
	.seh_proc	display
display:
	pushq	%rbp
	.seh_pushreg	%rbp
	movq	%rsp, %rbp
	.seh_setframe	%rbp, 0
	subq	$32, %rsp
	.seh_stackalloc	32
	.seh_endprologue
	movl	%ecx, %eax
	movb	%al, 16(%rbp)
	movsbq	16(%rbp), %rax
	movq	%rax, %rcx
	call	printf
	nop
	addq	$32, %rsp
	popq	%rbp
	ret
	.seh_endproc
	.def	__main;	.scl	2;	.type	32;	.endef
	.section .rdata,"dr"
.LC1:
	.ascii "Hello\0"
	.text
	.globl	main
	.def	main;	.scl	2;	.type	32;	.endef
	.seh_proc	main
main:
	pushq	%rbp
	.seh_pushreg	%rbp
	movq	%rsp, %rbp
	.seh_setframe	%rbp, 0
	subq	$48, %rsp
	.seh_stackalloc	48
	.seh_endprologue
	movl	%ecx, 16(%rbp)
	movq	%rdx, 24(%rbp)
	call	__main
	leaq	.LC1(%rip), %rax
	movb	%al, -1(%rbp)
	movsbl	-1(%rbp), %eax
	movl	%eax, %ecx
	call	display
	movl	$0, %eax
	addq	$48, %rsp
	popq	%rbp
	ret
	.seh_endproc
	.ident	"GCC: (Rev6, Built by MSYS2 project) 13.1.0"
	.def	__mingw_vfprintf;	.scl	2;	.type	32;	.endef
